target datalayout = "e-m:e-p270:32:32-p271:32:32-p272:64:64-i64:64-i128:128-f80:128-n8:16:32:64-S128"
target triple = "x86_64-pc-linux-gnu"

%struct.ldbState = type { ptr, i32, i32, ptr, ptr, ptr, [64 x i32], i32, i32, i32, ptr, i32, i32, ptr, i64, i32 }
%struct.luaCtx = type { ptr, ptr, ptr, ptr, i64 }
%struct.sharedObjectsStruct = type { ptr, ptr, ptr, ptr, ptr, ptr, ptr, ptr, [4 x ptr], [4 x ptr], [4 x ptr], [4 x ptr], ptr, ptr, ptr, ptr, ptr, ptr, ptr, ptr, ptr, ptr, ptr, ptr, ptr, ptr, ptr, ptr, ptr, ptr, ptr, ptr, ptr, ptr, ptr, ptr, ptr, ptr, ptr, ptr, ptr, ptr, ptr, ptr, ptr, ptr, ptr, ptr, ptr, ptr, ptr, ptr, ptr, ptr, ptr, ptr, ptr, ptr, ptr, ptr, ptr, ptr, ptr, ptr, ptr, ptr, ptr, ptr, ptr, ptr, ptr, ptr, ptr, ptr, ptr, ptr, ptr, ptr, ptr, ptr, ptr, ptr, ptr, ptr, ptr, ptr, ptr, ptr, [10 x ptr], [10000 x ptr], [32 x ptr], [32 x ptr], [32 x ptr], [32 x ptr], ptr, ptr }
%struct.luaScript = type { i64, ptr, ptr }
%struct.client = type { i64, i64, ptr, i8, i8, i8, i8, i32, ptr, ptr, ptr, ptr, ptr, i64, i64, i32, ptr, i32, i32, ptr, i64, ptr, ptr, ptr, ptr, ptr, i32, i32, i64, ptr, i64, ptr, i64, i64, i64, i32, ptr, i64, i64, i32, i32, i32, i32, i64, i64, ptr, i64, i64, i64, i64, i64, i64, i64, i64, [41 x i8], i32, ptr, i32, i32, i64, %struct.multiState, %struct.blockingState, i64, ptr, ptr, ptr, ptr, ptr, ptr, ptr, ptr, ptr, ptr, ptr, ptr, ptr, ptr, i64, ptr, i64, i32, ptr, ptr, ptr, i64, %struct.listNode, i64, i64, i32, i64, ptr }
%struct.multiState = type { ptr, i32, i32, i32, i64, i32 }
%struct.blockingState = type { i32, i64, i32, ptr, i32, i32, i64, ptr, ptr, i64 }
%struct.listNode = type { ptr, ptr, ptr }
%struct.redisCommand = type { ptr, ptr, ptr, ptr, i32, ptr, ptr, i32, ptr, i32, ptr, i32, ptr, i32, i64, i64, ptr, i32, ptr, i32, ptr, ptr, i64, i64, i64, i64, i32, ptr, ptr, %struct.keySpec, ptr, ptr, ptr }
%struct.keySpec = type { ptr, i64, i32, %union.anon.1, i32, %union.anon.4 }
%union.anon.1 = type { %struct.anon.3 }
%struct.anon.3 = type { ptr, i32 }
%union.anon.4 = type { %struct.anon.5 }
%struct.anon.5 = type { i32, i32, i32 }
%struct.redisObject = type { i32, i32, ptr }
%struct.scriptRunCtx = type { ptr, ptr, ptr, i32, i32, i64, i32 }

@ldb = dso_local global %struct.ldbState zeroinitializer, align 8
@lctx = dso_local global %struct.luaCtx zeroinitializer, align 8
@gc_count = internal global i32 0, align 4
@.str.23 = private unnamed_addr constant [7 x i8] c"eval.c\00", align 1
@.str.27 = private unnamed_addr constant [52 x i8] c"Number of keys can't be greater than number of args\00", align 1
@.str.28 = private unnamed_addr constant [33 x i8] c"Number of keys can't be negative\00", align 1
@.str.29 = private unnamed_addr constant [22 x i8] c"__redis__err__handler\00", align 1
@shared = external global %struct.sharedObjectsStruct, align 8
@.str.30 = private unnamed_addr constant [19 x i8] c"!lua_isnil(lua,-1)\00", align 1

; Function Attrs: nounwind uwtable
define dso_local void @evalGenericCommand(ptr noundef %0, i32 noundef %1) #0 {
  %3 = alloca ptr, align 8
  %4 = alloca i32, align 4
  %5 = alloca ptr, align 8
  %6 = alloca [43 x i8], align 16
  %7 = alloca i64, align 8
  %8 = alloca i32, align 4
  %9 = alloca ptr, align 8
  %10 = alloca ptr, align 8
  %11 = alloca ptr, align 8
  %12 = alloca i32, align 4
  %13 = alloca %struct.scriptRunCtx, align 8
  store ptr %0, ptr %3, align 8, !tbaa !110
  store i32 %1, ptr %4, align 4, !tbaa !19
  call void @llvm.lifetime.start.p0(i64 8, ptr %5) #14
  %14 = load ptr, ptr @lctx, align 8, !tbaa !73
  store ptr %14, ptr %5, align 8, !tbaa !24
  call void @llvm.lifetime.start.p0(i64 43, ptr %6) #14
  call void @llvm.lifetime.start.p0(i64 8, ptr %7) #14
  %15 = load ptr, ptr %3, align 8, !tbaa !110
  %16 = load ptr, ptr %3, align 8, !tbaa !110
  %17 = getelementptr inbounds nuw %struct.client, ptr %16, i32 0, i32 16
  %18 = load ptr, ptr %17, align 8, !tbaa !118
  %19 = getelementptr inbounds ptr, ptr %18, i64 2
  %20 = load ptr, ptr %19, align 8, !tbaa !119
  %21 = call i32 @getLongLongFromObjectOrReply(ptr noundef %15, ptr noundef %20, ptr noundef %7, ptr noundef null)
  %22 = icmp ne i32 %21, 0
  br i1 %22, label %23, label %24

23:                                               ; preds = %2
  store i32 1, ptr %8, align 4
  br label %194

24:                                               ; preds = %2
  %25 = load i64, ptr %7, align 8, !tbaa !143
  %26 = load ptr, ptr %3, align 8, !tbaa !110
  %27 = getelementptr inbounds nuw %struct.client, ptr %26, i32 0, i32 15
  %28 = load i32, ptr %27, align 8, !tbaa !130
  %29 = sub nsw i32 %28, 3
  %30 = sext i32 %29 to i64
  %31 = icmp sgt i64 %25, %30
  br i1 %31, label %32, label %34

32:                                               ; preds = %24
  %33 = load ptr, ptr %3, align 8, !tbaa !110
  call void @addReplyError(ptr noundef %33, ptr noundef @.str.27)
  store i32 1, ptr %8, align 4
  br label %194

34:                                               ; preds = %24
  %35 = load i64, ptr %7, align 8, !tbaa !143
  %36 = icmp slt i64 %35, 0
  br i1 %36, label %37, label %39

37:                                               ; preds = %34
  %38 = load ptr, ptr %3, align 8, !tbaa !110
  call void @addReplyError(ptr noundef %38, ptr noundef @.str.28)
  store i32 1, ptr %8, align 4
  br label %194

39:                                               ; preds = %34
  br label %40

40:                                               ; preds = %39
  %41 = load ptr, ptr %3, align 8, !tbaa !110
  %42 = getelementptr inbounds nuw %struct.client, ptr %41, i32 0, i32 36
  %43 = load ptr, ptr %42, align 8, !tbaa !122
  %44 = icmp ne ptr %43, null
  br i1 %44, label %45, label %55

45:                                               ; preds = %40
  %46 = getelementptr inbounds [43 x i8], ptr %6, i64 0, i64 0
  store i8 102, ptr %46, align 16, !tbaa !21
  %47 = getelementptr inbounds [43 x i8], ptr %6, i64 0, i64 1
  store i8 95, ptr %47, align 1, !tbaa !21
  %48 = getelementptr inbounds [43 x i8], ptr %6, i64 0, i64 0
  %49 = getelementptr inbounds i8, ptr %48, i64 2
  %50 = load ptr, ptr %3, align 8, !tbaa !110
  %51 = getelementptr inbounds nuw %struct.client, ptr %50, i32 0, i32 36
  %52 = load ptr, ptr %51, align 8, !tbaa !122
  %53 = call ptr @dictGetKey(ptr noundef %52)
  call void @llvm.memcpy.p0.p0.i64(ptr align 1 %49, ptr align 1 %53, i64 40, i1 false)
  %54 = getelementptr inbounds [43 x i8], ptr %6, i64 0, i64 42
  store i8 0, ptr %54, align 2, !tbaa !21
  br label %65

55:                                               ; preds = %40
  %56 = load i32, ptr %4, align 4, !tbaa !19
  %57 = load ptr, ptr %3, align 8, !tbaa !110
  %58 = getelementptr inbounds nuw %struct.client, ptr %57, i32 0, i32 16
  %59 = load ptr, ptr %58, align 8, !tbaa !118
  %60 = getelementptr inbounds ptr, ptr %59, i64 1
  %61 = load ptr, ptr %60, align 8, !tbaa !119
  %62 = getelementptr inbounds nuw %struct.redisObject, ptr %61, i32 0, i32 2
  %63 = load ptr, ptr %62, align 8, !tbaa !120
  %64 = getelementptr inbounds [43 x i8], ptr %6, i64 0, i64 0
  call void @evalCalcFunctionName(i32 noundef %56, ptr noundef %63, ptr noundef %64)
  br label %65

65:                                               ; preds = %55, %45
  %66 = load ptr, ptr %5, align 8, !tbaa !24
  call void @lua_getfield(ptr noundef %66, i32 noundef -10002, ptr noundef @.str.29)
  %67 = load ptr, ptr %5, align 8, !tbaa !24
  %68 = getelementptr inbounds [43 x i8], ptr %6, i64 0, i64 0
  call void @lua_getfield(ptr noundef %67, i32 noundef -10000, ptr noundef %68)
  %69 = load ptr, ptr %5, align 8, !tbaa !24
  %70 = call i32 @lua_type(ptr noundef %69, i32 noundef -1)
  %71 = icmp eq i32 %70, 0
  br i1 %71, label %72, label %109

72:                                               ; preds = %65
  %73 = load ptr, ptr %5, align 8, !tbaa !24
  call void @lua_settop(ptr noundef %73, i32 noundef -2)
  %74 = load i32, ptr %4, align 4, !tbaa !19
  %75 = icmp ne i32 %74, 0
  br i1 %75, label %76, label %80

76:                                               ; preds = %72
  %77 = load ptr, ptr %5, align 8, !tbaa !24
  call void @lua_settop(ptr noundef %77, i32 noundef -2)
  %78 = load ptr, ptr %3, align 8, !tbaa !110
  %79 = load ptr, ptr getelementptr inbounds nuw (%struct.sharedObjectsStruct, ptr @shared, i32 0, i32 18), align 8, !tbaa !131
  call void @addReplyErrorObject(ptr noundef %78, ptr noundef %79)
  store i32 1, ptr %8, align 4
  br label %194

80:                                               ; preds = %72
  %81 = load ptr, ptr %3, align 8, !tbaa !110
  %82 = load ptr, ptr %3, align 8, !tbaa !110
  %83 = getelementptr inbounds nuw %struct.client, ptr %82, i32 0, i32 16
  %84 = load ptr, ptr %83, align 8, !tbaa !118
  %85 = getelementptr inbounds ptr, ptr %84, i64 1
  %86 = load ptr, ptr %85, align 8, !tbaa !119
  %87 = load i32, ptr %4, align 4, !tbaa !19
  %88 = call ptr @luaCreateFunction(ptr noundef %81, ptr noundef %86, i32 noundef %87)
  %89 = icmp eq ptr %88, null
  br i1 %89, label %90, label %92

90:                                               ; preds = %80
  %91 = load ptr, ptr %5, align 8, !tbaa !24
  call void @lua_settop(ptr noundef %91, i32 noundef -2)
  store i32 1, ptr %8, align 4
  br label %194

92:                                               ; preds = %80
  %93 = load ptr, ptr %5, align 8, !tbaa !24
  %94 = getelementptr inbounds [43 x i8], ptr %6, i64 0, i64 0
  call void @lua_getfield(ptr noundef %93, i32 noundef -10000, ptr noundef %94)
  %95 = load ptr, ptr %5, align 8, !tbaa !24
  %96 = call i32 @lua_type(ptr noundef %95, i32 noundef -1)
  %97 = icmp eq i32 %96, 0
  %98 = xor i1 %97, true
  %99 = xor i1 %98, true
  %100 = xor i1 %99, true
  %101 = zext i1 %100 to i32
  %102 = sext i32 %101 to i64
  %103 = call i64 @llvm.expect.i64(i64 %102, i64 1)
  %104 = icmp ne i64 %103, 0
  br i1 %104, label %105, label %106

105:                                              ; preds = %92
  br label %108

106:                                              ; preds = %92
  call void @_serverAssert(ptr noundef @.str.30, ptr noundef @.str.23, i32 noundef 595)
  call void @abort() #15
  unreachable

107:                                              ; No predecessors!
  br label %108

108:                                              ; preds = %107, %105
  br label %109

109:                                              ; preds = %108, %65
  call void @llvm.lifetime.start.p0(i64 8, ptr %9) #14
  %110 = getelementptr inbounds [43 x i8], ptr %6, i64 0, i64 0
  %111 = getelementptr inbounds i8, ptr %110, i64 2
  store ptr %111, ptr %9, align 8, !tbaa !16
  call void @llvm.lifetime.start.p0(i64 8, ptr %10) #14
  %112 = load ptr, ptr %3, align 8, !tbaa !110
  %113 = getelementptr inbounds nuw %struct.client, ptr %112, i32 0, i32 36
  %114 = load ptr, ptr %113, align 8, !tbaa !122
  store ptr %114, ptr %10, align 8, !tbaa !134
  %115 = load ptr, ptr %10, align 8, !tbaa !134
  %116 = icmp ne ptr %115, null
  br i1 %116, label %121, label %117

117:                                              ; preds = %109
  %118 = load ptr, ptr getelementptr inbounds nuw (%struct.luaCtx, ptr @lctx, i32 0, i32 2), align 8, !tbaa !61
  %119 = load ptr, ptr %9, align 8, !tbaa !16
  %120 = call ptr @dictFind(ptr noundef %118, ptr noundef %119)
  store ptr %120, ptr %10, align 8, !tbaa !134
  br label %121

121:                                              ; preds = %117, %109
  call void @llvm.lifetime.start.p0(i64 8, ptr %11) #14
  %122 = load ptr, ptr %10, align 8, !tbaa !134
  %123 = call ptr @dictGetVal(ptr noundef %122)
  store ptr %123, ptr %11, align 8, !tbaa !123
  call void @llvm.lifetime.start.p0(i64 4, ptr %12) #14
  %124 = load ptr, ptr %3, align 8, !tbaa !110
  %125 = getelementptr inbounds nuw %struct.client, ptr %124, i32 0, i32 21
  %126 = load ptr, ptr %125, align 8, !tbaa !111
  %127 = getelementptr inbounds nuw %struct.redisCommand, ptr %126, i32 0, i32 12
  %128 = load ptr, ptr %127, align 8, !tbaa !112
  %129 = icmp eq ptr %128, @evalRoCommand
  br i1 %129, label %137, label %130

130:                                              ; preds = %121
  %131 = load ptr, ptr %3, align 8, !tbaa !110
  %132 = getelementptr inbounds nuw %struct.client, ptr %131, i32 0, i32 21
  %133 = load ptr, ptr %132, align 8, !tbaa !111
  %134 = getelementptr inbounds nuw %struct.redisCommand, ptr %133, i32 0, i32 12
  %135 = load ptr, ptr %134, align 8, !tbaa !112
  %136 = icmp eq ptr %135, @evalShaRoCommand
  br label %137

137:                                              ; preds = %130, %121
  %138 = phi i1 [ true, %121 ], [ %136, %130 ]
  %139 = zext i1 %138 to i32
  store i32 %139, ptr %12, align 4, !tbaa !19
  call void @llvm.lifetime.start.p0(i64 48, ptr %13) #14
  %140 = load ptr, ptr getelementptr inbounds nuw (%struct.luaCtx, ptr @lctx, i32 0, i32 1), align 8, !tbaa !35
  %141 = load ptr, ptr %3, align 8, !tbaa !110
  %142 = load ptr, ptr %9, align 8, !tbaa !16
  %143 = load ptr, ptr %11, align 8, !tbaa !123
  %144 = getelementptr inbounds nuw %struct.luaScript, ptr %143, i32 0, i32 0
  %145 = load i64, ptr %144, align 8, !tbaa !125
  %146 = load i32, ptr %12, align 4, !tbaa !19
  %147 = call i32 @scriptPrepareForRun(ptr noundef %13, ptr noundef %140, ptr noundef %141, ptr noundef %142, i64 noundef %145, i32 noundef %146)
  %148 = icmp ne i32 %147, 0
  br i1 %148, label %149, label %151

149:                                              ; preds = %137
  %150 = load ptr, ptr %5, align 8, !tbaa !24
  call void @lua_settop(ptr noundef %150, i32 noundef -3)
  store i32 1, ptr %8, align 4
  br label %193

151:                                              ; preds = %137
  %152 = getelementptr inbounds nuw %struct.scriptRunCtx, ptr %13, i32 0, i32 3
  %153 = load i32, ptr %152, align 8, !tbaa !144
  %154 = sext i32 %153 to i64
  %155 = or i64 %154, 128
  %156 = trunc i64 %155 to i32
  store i32 %156, ptr %152, align 8, !tbaa !144
  %157 = load ptr, ptr %5, align 8, !tbaa !24
  %158 = load ptr, ptr %3, align 8, !tbaa !110
  %159 = getelementptr inbounds nuw %struct.client, ptr %158, i32 0, i32 16
  %160 = load ptr, ptr %159, align 8, !tbaa !118
  %161 = getelementptr inbounds ptr, ptr %160, i64 3
  %162 = load i64, ptr %7, align 8, !tbaa !143
  %163 = load ptr, ptr %3, align 8, !tbaa !110
  %164 = getelementptr inbounds nuw %struct.client, ptr %163, i32 0, i32 16
  %165 = load ptr, ptr %164, align 8, !tbaa !118
  %166 = getelementptr inbounds ptr, ptr %165, i64 3
  %167 = load i64, ptr %7, align 8, !tbaa !143
  %168 = getelementptr inbounds ptr, ptr %166, i64 %167
  %169 = load ptr, ptr %3, align 8, !tbaa !110
  %170 = getelementptr inbounds nuw %struct.client, ptr %169, i32 0, i32 15
  %171 = load i32, ptr %170, align 8, !tbaa !130
  %172 = sub nsw i32 %171, 3
  %173 = sext i32 %172 to i64
  %174 = load i64, ptr %7, align 8, !tbaa !143
  %175 = sub nsw i64 %173, %174
  %176 = load i32, ptr getelementptr inbounds nuw (%struct.ldbState, ptr @ldb, i32 0, i32 1), align 8, !tbaa !26
  call void @luaCallFunction(ptr noundef %13, ptr noundef %157, ptr noundef %161, i64 noundef %162, ptr noundef %168, i64 noundef %175, i32 noundef %176)
  %177 = load ptr, ptr %5, align 8, !tbaa !24
  call void @lua_settop(ptr noundef %177, i32 noundef -2)
  call void @scriptResetRun(ptr noundef %13)
  %178 = load ptr, ptr %5, align 8, !tbaa !24
  call void @luaGC(ptr noundef %178, ptr noundef @gc_count)
  %179 = load ptr, ptr %11, align 8, !tbaa !123
  %180 = getelementptr inbounds nuw %struct.luaScript, ptr %179, i32 0, i32 2
  %181 = load ptr, ptr %180, align 8, !tbaa !135
  %182 = icmp ne ptr %181, null
  br i1 %182, label %183, label %192

183:                                              ; preds = %151
  %184 = load ptr, ptr getelementptr inbounds nuw (%struct.luaCtx, ptr @lctx, i32 0, i32 3), align 8, !tbaa !62
  %185 = load ptr, ptr %11, align 8, !tbaa !123
  %186 = getelementptr inbounds nuw %struct.luaScript, ptr %185, i32 0, i32 2
  %187 = load ptr, ptr %186, align 8, !tbaa !135
  call void @listUnlinkNode(ptr noundef %184, ptr noundef %187)
  %188 = load ptr, ptr getelementptr inbounds nuw (%struct.luaCtx, ptr @lctx, i32 0, i32 3), align 8, !tbaa !62
  %189 = load ptr, ptr %11, align 8, !tbaa !123
  %190 = getelementptr inbounds nuw %struct.luaScript, ptr %189, i32 0, i32 2
  %191 = load ptr, ptr %190, align 8, !tbaa !135
  call void @listLinkNodeTail(ptr noundef %188, ptr noundef %191)
  br label %192

192:                                              ; preds = %183, %151
  store i32 0, ptr %8, align 4
  br label %193

193:                                              ; preds = %192, %149
  call void @llvm.lifetime.end.p0(i64 48, ptr %13) #14
  call void @llvm.lifetime.end.p0(i64 4, ptr %12) #14
  call void @llvm.lifetime.end.p0(i64 8, ptr %11) #14
  call void @llvm.lifetime.end.p0(i64 8, ptr %10) #14
  call void @llvm.lifetime.end.p0(i64 8, ptr %9) #14
  br label %194

194:                                              ; preds = %193, %90, %76, %37, %32, %23
  call void @llvm.lifetime.end.p0(i64 8, ptr %7) #14
  call void @llvm.lifetime.end.p0(i64 43, ptr %6) #14
  call void @llvm.lifetime.end.p0(i64 8, ptr %5) #14
  %195 = load i32, ptr %8, align 4
  switch i32 %195, label %197 [
    i32 0, label %196
    i32 1, label %196
  ]

196:                                              ; preds = %194, %194
  ret void

197:                                              ; preds = %194
  unreachable
}