; Function Attrs: nounwind uwtable
define dso_local void @evalGenericCommand(ptr noundef %0, i32 noundef %1) local_unnamed_addr #0 {
  %3 = alloca [43 x i8], align 16
  %4 = alloca i64, align 8
  %5 = alloca %struct.scriptRunCtx, align 8
  %6 = load ptr, ptr @lctx, align 8, !tbaa !74
  call void @llvm.lifetime.start.p0(i64 43, ptr nonnull %3) #19
  call void @llvm.lifetime.start.p0(i64 8, ptr nonnull %4) #19
  %7 = getelementptr inbounds nuw i8, ptr %0, i64 96
  %8 = load ptr, ptr %7, align 8, !tbaa !108
  %9 = getelementptr inbounds nuw i8, ptr %8, i64 16
  %10 = load ptr, ptr %9, align 8, !tbaa !109
  %11 = call i32 @getLongLongFromObjectOrReply(ptr noundef %0, ptr noundef %10, ptr noundef nonnull %4, ptr noundef null) #19
  %.not = icmp eq i32 %11, 0
  br i1 %.not, label %12, label %92

12:                                               ; preds = %2
  %13 = load i64, ptr %4, align 8, !tbaa !131
  %14 = getelementptr inbounds nuw i8, ptr %0, i64 88
  %15 = load i32, ptr %14, align 8, !tbaa !117
  %16 = add nsw i32 %15, -3
  %17 = sext i32 %16 to i64
  %18 = icmp sgt i64 %13, %17
  br i1 %18, label %19, label %20

19:                                               ; preds = %12
  call void @addReplyError(ptr noundef nonnull %0, ptr noundef nonnull @.str.27) #19
  br label %92

20:                                               ; preds = %12
  %21 = icmp slt i64 %13, 0
  br i1 %21, label %22, label %23

22:                                               ; preds = %20
  call void @addReplyError(ptr noundef nonnull %0, ptr noundef nonnull @.str.28) #19
  br label %92

23:                                               ; preds = %20
  %24 = getelementptr inbounds nuw i8, ptr %0, i64 240
  %25 = load ptr, ptr %24, align 8, !tbaa !112
  %.not46 = icmp eq ptr %25, null
  br i1 %.not46, label %31, label %26

26:                                               ; preds = %23
  store i8 102, ptr %3, align 16, !tbaa !13
  %27 = getelementptr inbounds nuw i8, ptr %3, i64 1
  store i8 95, ptr %27, align 1, !tbaa !13
  %28 = getelementptr inbounds nuw i8, ptr %3, i64 2
  %29 = call ptr @dictGetKey(ptr noundef nonnull %25) #19
  call void @llvm.memcpy.p0.p0.i64(ptr noundef nonnull align 2 dereferenceable(40) %28, ptr noundef nonnull align 1 dereferenceable(40) %29, i64 40, i1 false)
  %30 = getelementptr inbounds nuw i8, ptr %3, i64 42
  store i8 0, ptr %30, align 2, !tbaa !13
  br label %37

31:                                               ; preds = %23
  %32 = load ptr, ptr %7, align 8, !tbaa !108
  %33 = getelementptr inbounds nuw i8, ptr %32, i64 8
  %34 = load ptr, ptr %33, align 8, !tbaa !109
  %35 = getelementptr inbounds nuw i8, ptr %34, i64 8
  %36 = load ptr, ptr %35, align 8, !tbaa !110
  call fastcc void @evalCalcFunctionName(i32 noundef %1, ptr noundef %36, ptr noundef %3)
  br label %37

37:                                               ; preds = %31, %26
  call void @lua_getfield(ptr noundef %6, i32 noundef -10002, ptr noundef nonnull @.str.29) #19
  call void @lua_getfield(ptr noundef %6, i32 noundef -10000, ptr noundef nonnull %3) #19
  %38 = call i32 @lua_type(ptr noundef %6, i32 noundef -1) #19
  %39 = icmp eq i32 %38, 0
  br i1 %39, label %40, label %53

40:                                               ; preds = %37
  call void @lua_settop(ptr noundef %6, i32 noundef -2) #19
  %.not47 = icmp eq i32 %1, 0
  br i1 %.not47, label %43, label %41

41:                                               ; preds = %40
  call void @lua_settop(ptr noundef %6, i32 noundef -2) #19
  %42 = load ptr, ptr getelementptr inbounds nuw (i8, ptr @shared, i64 240), align 8, !tbaa !118
  call void @addReplyErrorObject(ptr noundef nonnull %0, ptr noundef %42) #19
  br label %92

43:                                               ; preds = %40
  %44 = load ptr, ptr %7, align 8, !tbaa !108
  %45 = getelementptr inbounds nuw i8, ptr %44, i64 8
  %46 = load ptr, ptr %45, align 8, !tbaa !109
  %47 = call ptr @luaCreateFunction(ptr noundef nonnull %0, ptr noundef %46, i32 noundef 0)
  %48 = icmp eq ptr %47, null
  br i1 %48, label %49, label %50

49:                                               ; preds = %43
  call void @lua_settop(ptr noundef %6, i32 noundef -2) #19
  br label %92

50:                                               ; preds = %43
  call void @lua_getfield(ptr noundef %6, i32 noundef -10000, ptr noundef nonnull %3) #19
  %51 = call i32 @lua_type(ptr noundef %6, i32 noundef -1) #19
  %.not48 = icmp eq i32 %51, 0
  br i1 %.not48, label %52, label %53, !prof !130

52:                                               ; preds = %50
  call void @_serverAssert(ptr noundef nonnull @.str.30, ptr noundef nonnull @.str.23, i32 noundef 595) #19
  call void @abort() #21
  unreachable

53:                                               ; preds = %50, %37
  %54 = getelementptr inbounds nuw i8, ptr %3, i64 2
  %55 = load ptr, ptr %24, align 8, !tbaa !112
  %.not49 = icmp eq ptr %55, null
  br i1 %.not49, label %56, label %59

56:                                               ; preds = %53
  %57 = load ptr, ptr getelementptr inbounds nuw (i8, ptr @lctx, i64 16), align 8, !tbaa !62
  %58 = call ptr @dictFind(ptr noundef %57, ptr noundef nonnull %54) #19
  br label %59

59:                                               ; preds = %56, %53
  %.0 = phi ptr [ %55, %53 ], [ %58, %56 ]
  %60 = call ptr @dictGetVal(ptr noundef %.0) #19
  %61 = getelementptr inbounds nuw i8, ptr %0, i64 128
  %62 = load ptr, ptr %61, align 8, !tbaa !101
  %63 = getelementptr inbounds nuw i8, ptr %62, i64 96
  %64 = load ptr, ptr %63, align 8, !tbaa !102
  %65 = icmp eq ptr %64, @evalRoCommand
  %66 = icmp eq ptr %64, @evalShaRoCommand
  %narrow = or i1 %65, %66
  %67 = zext i1 %narrow to i32
  call void @llvm.lifetime.start.p0(i64 48, ptr nonnull %5) #19
  %68 = load ptr, ptr getelementptr inbounds nuw (i8, ptr @lctx, i64 8), align 8, !tbaa !27
  %69 = load i64, ptr %60, align 8, !tbaa !122
  %70 = call i32 @scriptPrepareForRun(ptr noundef nonnull %5, ptr noundef %68, ptr noundef nonnull %0, ptr noundef nonnull %54, i64 noundef %69, i32 noundef %67) #19
  %.not50 = icmp eq i32 %70, 0
  br i1 %.not50, label %72, label %71

71:                                               ; preds = %59
  call void @lua_settop(ptr noundef %6, i32 noundef -3) #19
  br label %91

72:                                               ; preds = %59
  %73 = getelementptr inbounds nuw i8, ptr %5, i64 24
  %74 = load i32, ptr %73, align 8, !tbaa !132
  %75 = or i32 %74, 128
  store i32 %75, ptr %73, align 8, !tbaa !132
  %76 = load ptr, ptr %7, align 8, !tbaa !108
  %77 = getelementptr inbounds nuw i8, ptr %76, i64 24
  %78 = load i64, ptr %4, align 8, !tbaa !131
  %79 = getelementptr inbounds ptr, ptr %77, i64 %78
  %80 = load i32, ptr %14, align 8, !tbaa !117
  %81 = add nsw i32 %80, -3
  %82 = sext i32 %81 to i64
  %83 = sub nsw i64 %82, %78
  %84 = load i32, ptr getelementptr inbounds nuw (i8, ptr @ldb, i64 8), align 8, !tbaa !16
  call void @luaCallFunction(ptr noundef nonnull %5, ptr noundef %6, ptr noundef nonnull %77, i64 noundef %78, ptr noundef nonnull %79, i64 noundef %83, i32 noundef %84) #19
  call void @lua_settop(ptr noundef %6, i32 noundef -2) #19
  call void @scriptResetRun(ptr noundef nonnull %5) #19
  call void @luaGC(ptr noundef %6, ptr noundef nonnull @gc_count) #19
  %85 = getelementptr inbounds nuw i8, ptr %60, i64 16
  %86 = load ptr, ptr %85, align 8, !tbaa !129
  %.not51 = icmp eq ptr %86, null
  br i1 %.not51, label %91, label %87

87:                                               ; preds = %72
  %88 = load ptr, ptr getelementptr inbounds nuw (i8, ptr @lctx, i64 24), align 8, !tbaa !63
  call void @listUnlinkNode(ptr noundef %88, ptr noundef nonnull %86) #19
  %89 = load ptr, ptr getelementptr inbounds nuw (i8, ptr @lctx, i64 24), align 8, !tbaa !63
  %90 = load ptr, ptr %85, align 8, !tbaa !129
  call void @listLinkNodeTail(ptr noundef %89, ptr noundef %90) #19
  br label %91

91:                                               ; preds = %72, %87, %71
  call void @llvm.lifetime.end.p0(i64 48, ptr nonnull %5) #19
  br label %92

92:                                               ; preds = %2, %91, %49, %41, %22, %19
  call void @llvm.lifetime.end.p0(i64 8, ptr nonnull %4) #19
  call void @llvm.lifetime.end.p0(i64 43, ptr nonnull %3) #19
  ret void
}